; Function Attrs: mustprogress nofree norecurse nosync nounwind willreturn memory(write, argmem: readwrite, inaccessiblemem: none) uwtable
define dso_local void @_ZN5clang6interp5Block10addPointerEPNS0_7PointerE(ptr nocapture noundef nonnull align 8 dereferenceable(40) %0, ptr noundef %1) local_unnamed_addr #0 align 2 {
  %3 = getelementptr inbounds nuw i8, ptr %0, i64 24
  %4 = load i8, ptr %3, align 8
  %5 = trunc i8 %4 to i1
  br i1 %5, label %15, label %6

6:                                                ; preds = %2
  %7 = getelementptr inbounds nuw i8, ptr %0, i64 8
  %8 = load ptr, ptr %7, align 8
  %.not = icmp eq ptr %8, null
  br i1 %.not, label %11, label %9

9:                                                ; preds = %6
  %10 = getelementptr inbounds nuw i8, ptr %8, i64 8
  store ptr %1, ptr %10, align 8
  %.pre = load ptr, ptr %7, align 8
  br label %11

11:                                               ; preds = %9, %6
  %12 = phi ptr [ %.pre, %9 ], [ null, %6 ]
  %13 = getelementptr inbounds nuw i8, ptr %1, i64 16
  store ptr %12, ptr %13, align 8
  %14 = getelementptr inbounds nuw i8, ptr %1, i64 8
  store ptr null, ptr %14, align 8
  store ptr %1, ptr %7, align 8
  br label %15

15:                                               ; preds = %2, %11
  ret void
}